target datalayout = "e-m:e-p270:32:32-p271:32:32-p272:64:64-i64:64-i128:128-f80:128-n8:16:32:64-S128"
target triple = "x86_64-pc-linux-gnu"

%struct.Map_ManStruct_t_ = type { ptr, i32, ptr, i32, ptr, i32, i32, ptr, ptr, ptr, ptr, ptr, ptr, ptr, ptr, i32, i32, i32, i32, float, float, float, float, i32, i32, float, i32, i32, i32, i32, ptr, [6 x [2 x i32]], [10 x [32 x i32]], [32 x i32], [32 x i32], ptr, ptr, ptr, ptr, ptr, ptr, i32, i32, i32, i32, i32, i32, i64, i64, i64, i64, i64, i64, i64, i64, i64, i64, i64 }

; Function Attrs: nounwind uwtable
define void @Map_MappingSetChoiceLevels(ptr noundef %0) #0 {
  %2 = alloca ptr, align 8
  %3 = alloca i32, align 4
  store ptr %0, ptr %2, align 8, !tbaa !20
  call void @llvm.lifetime.start.p0(i64 4, ptr %3) #4
  %4 = load ptr, ptr %2, align 8, !tbaa !20
  %5 = getelementptr inbounds nuw %struct.Map_ManStruct_t_, ptr %4, i32 0, i32 26
  %6 = load i32, ptr %5, align 4, !tbaa !99
  %7 = add nsw i32 %6, 1
  store i32 %7, ptr %5, align 4, !tbaa !99
  store i32 0, ptr %3, align 4, !tbaa !10
  br label %8

8:                                                ; preds = %27, %1
  %9 = load i32, ptr %3, align 4, !tbaa !10
  %10 = load ptr, ptr %2, align 8, !tbaa !20
  %11 = getelementptr inbounds nuw %struct.Map_ManStruct_t_, ptr %10, i32 0, i32 5
  %12 = load i32, ptr %11, align 8, !tbaa !21
  %13 = icmp slt i32 %9, %12
  br i1 %13, label %14, label %30

14:                                               ; preds = %8
  %15 = load ptr, ptr %2, align 8, !tbaa !20
  %16 = load ptr, ptr %2, align 8, !tbaa !20
  %17 = getelementptr inbounds nuw %struct.Map_ManStruct_t_, ptr %16, i32 0, i32 4
  %18 = load ptr, ptr %17, align 8, !tbaa !32
  %19 = load i32, ptr %3, align 4, !tbaa !10
  %20 = sext i32 %19 to i64
  %21 = getelementptr inbounds ptr, ptr %18, i64 %20
  %22 = load ptr, ptr %21, align 8, !tbaa !3
  %23 = ptrtoint ptr %22 to i64
  %24 = and i64 %23, -2
  %25 = inttoptr i64 %24 to ptr
  %26 = call i32 @Map_MappingUpdateLevel_rec(ptr noundef %15, ptr noundef %25, i32 noundef 1)
  br label %27

27:                                               ; preds = %14
  %28 = load i32, ptr %3, align 4, !tbaa !10
  %29 = add nsw i32 %28, 1
  store i32 %29, ptr %3, align 4, !tbaa !10
  br label %8, !llvm.loop !101

30:                                               ; preds = %8
  call void @llvm.lifetime.end.p0(i64 4, ptr %3) #4
  ret void
}