; Function Attrs: nounwind uwtable
define void @Map_MappingSetChoiceLevels(ptr noundef %0) local_unnamed_addr #0 {
  %2 = getelementptr inbounds nuw i8, ptr %0, i64 156
  %3 = load i32, ptr %2, align 4, !tbaa !90
  %4 = add nsw i32 %3, 1
  store i32 %4, ptr %2, align 4, !tbaa !90
  %5 = getelementptr inbounds nuw i8, ptr %0, i64 40
  %6 = load i32, ptr %5, align 8, !tbaa !16
  %7 = icmp sgt i32 %6, 0
  br i1 %7, label %.lr.ph, label %._crit_edge

.lr.ph:                                           ; preds = %1
  %8 = getelementptr inbounds nuw i8, ptr %0, i64 32
  br label %9

9:                                                ; preds = %.lr.ph, %9
  %indvars.iv = phi i64 [ 0, %.lr.ph ], [ %indvars.iv.next, %9 ]
  %10 = load ptr, ptr %8, align 8, !tbaa !30
  %11 = getelementptr inbounds nuw ptr, ptr %10, i64 %indvars.iv
  %12 = load ptr, ptr %11, align 8, !tbaa !31
  %13 = ptrtoint ptr %12 to i64
  %14 = and i64 %13, -2
  %15 = inttoptr i64 %14 to ptr
  %16 = tail call i32 @Map_MappingUpdateLevel_rec(ptr noundef nonnull %0, ptr noundef %15, i32 noundef 1)
  %indvars.iv.next = add nuw nsw i64 %indvars.iv, 1
  %17 = load i32, ptr %5, align 8, !tbaa !16
  %18 = sext i32 %17 to i64
  %19 = icmp slt i64 %indvars.iv.next, %18
  br i1 %19, label %9, label %._crit_edge, !llvm.loop !92

._crit_edge:                                      ; preds = %9, %1
  ret void
}